target datalayout = "e-m:e-p270:32:32-p271:32:32-p272:64:64-i64:64-i128:128-f80:128-n8:16:32:64-S128"
target triple = "x86_64-pc-linux-gnu"

%struct.Curl_ssl_session = type { ptr, i64, i64, i32, ptr, i64, ptr, i64, %struct.Curl_llist_node }
%struct.Curl_llist_node = type { ptr, ptr, ptr, ptr }

@Curl_cfree = external global ptr, align 8

; Function Attrs: nounwind uwtable
define internal void @cf_ssl_scache_clear_session(ptr noundef %0) #0 {
  %2 = alloca ptr, align 8
  store ptr %0, ptr %2, align 8, !tbaa !15
  %3 = load ptr, ptr %2, align 8, !tbaa !15
  %4 = getelementptr inbounds nuw %struct.Curl_ssl_session, ptr %3, i32 0, i32 0
  %5 = load ptr, ptr %4, align 8, !tbaa !24
  %6 = icmp ne ptr %5, null
  br i1 %6, label %7, label %14

7:                                                ; preds = %1
  %8 = load ptr, ptr @Curl_cfree, align 8, !tbaa !14
  %9 = load ptr, ptr %2, align 8, !tbaa !15
  %10 = getelementptr inbounds nuw %struct.Curl_ssl_session, ptr %9, i32 0, i32 0
  %11 = load ptr, ptr %10, align 8, !tbaa !24
  call void %8(ptr noundef %11)
  %12 = load ptr, ptr %2, align 8, !tbaa !15
  %13 = getelementptr inbounds nuw %struct.Curl_ssl_session, ptr %12, i32 0, i32 0
  store ptr null, ptr %13, align 8, !tbaa !24
  br label %14

14:                                               ; preds = %7, %1
  %15 = load ptr, ptr %2, align 8, !tbaa !15
  %16 = getelementptr inbounds nuw %struct.Curl_ssl_session, ptr %15, i32 0, i32 1
  store i64 0, ptr %16, align 8, !tbaa !25
  %17 = load ptr, ptr %2, align 8, !tbaa !15
  %18 = getelementptr inbounds nuw %struct.Curl_ssl_session, ptr %17, i32 0, i32 6
  %19 = load ptr, ptr %18, align 8, !tbaa !26
  %20 = icmp ne ptr %19, null
  br i1 %20, label %21, label %28

21:                                               ; preds = %14
  %22 = load ptr, ptr @Curl_cfree, align 8, !tbaa !14
  %23 = load ptr, ptr %2, align 8, !tbaa !15
  %24 = getelementptr inbounds nuw %struct.Curl_ssl_session, ptr %23, i32 0, i32 6
  %25 = load ptr, ptr %24, align 8, !tbaa !26
  call void %22(ptr noundef %25)
  %26 = load ptr, ptr %2, align 8, !tbaa !15
  %27 = getelementptr inbounds nuw %struct.Curl_ssl_session, ptr %26, i32 0, i32 6
  store ptr null, ptr %27, align 8, !tbaa !26
  br label %28

28:                                               ; preds = %21, %14
  %29 = load ptr, ptr %2, align 8, !tbaa !15
  %30 = getelementptr inbounds nuw %struct.Curl_ssl_session, ptr %29, i32 0, i32 7
  store i64 0, ptr %30, align 8, !tbaa !27
  %31 = load ptr, ptr %2, align 8, !tbaa !15
  %32 = getelementptr inbounds nuw %struct.Curl_ssl_session, ptr %31, i32 0, i32 3
  store i32 0, ptr %32, align 8, !tbaa !17
  %33 = load ptr, ptr %2, align 8, !tbaa !15
  %34 = getelementptr inbounds nuw %struct.Curl_ssl_session, ptr %33, i32 0, i32 2
  store i64 0, ptr %34, align 8, !tbaa !22
  br label %35

35:                                               ; preds = %28
  %36 = load ptr, ptr @Curl_cfree, align 8, !tbaa !14
  %37 = load ptr, ptr %2, align 8, !tbaa !15
  %38 = getelementptr inbounds nuw %struct.Curl_ssl_session, ptr %37, i32 0, i32 4
  %39 = load ptr, ptr %38, align 8, !tbaa !28
  call void %36(ptr noundef %39)
  %40 = load ptr, ptr %2, align 8, !tbaa !15
  %41 = getelementptr inbounds nuw %struct.Curl_ssl_session, ptr %40, i32 0, i32 4
  store ptr null, ptr %41, align 8, !tbaa !28
  br label %42

42:                                               ; preds = %35
  ret void
}

; Function Attrs: nounwind uwtable
define internal void @cf_ssl_scache_sesssion_ldestroy(ptr noundef %0, ptr noundef %1) #0 {
  %3 = alloca ptr, align 8
  %4 = alloca ptr, align 8
  store ptr %0, ptr %3, align 8, !tbaa !14
  store ptr %1, ptr %4, align 8, !tbaa !14
  %5 = load ptr, ptr %4, align 8, !tbaa !14
  call void @cf_ssl_scache_clear_session(ptr noundef %5)
  %6 = load ptr, ptr @Curl_cfree, align 8, !tbaa !14
  %7 = load ptr, ptr %4, align 8, !tbaa !14
  call void %6(ptr noundef %7)
  ret void
}

; Function Attrs: nounwind uwtable
define hidden void @Curl_ssl_session_destroy(ptr noundef %0) #0 {
  %2 = alloca ptr, align 8
  store ptr %0, ptr %2, align 8, !tbaa !15
  %3 = load ptr, ptr %2, align 8, !tbaa !15
  %4 = icmp ne ptr %3, null
  br i1 %4, label %5, label %16

5:                                                ; preds = %1
  %6 = load ptr, ptr %2, align 8, !tbaa !15
  %7 = getelementptr inbounds nuw %struct.Curl_ssl_session, ptr %6, i32 0, i32 8
  %8 = call ptr @Curl_node_llist(ptr noundef %7)
  %9 = icmp ne ptr %8, null
  br i1 %9, label %10, label %13

10:                                               ; preds = %5
  %11 = load ptr, ptr %2, align 8, !tbaa !15
  %12 = getelementptr inbounds nuw %struct.Curl_ssl_session, ptr %11, i32 0, i32 8
  call void @Curl_node_remove(ptr noundef %12)
  br label %15

13:                                               ; preds = %5
  %14 = load ptr, ptr %2, align 8, !tbaa !15
  call void @cf_ssl_scache_sesssion_ldestroy(ptr noundef null, ptr noundef %14)
  br label %15

15:                                               ; preds = %13, %10
  br label %16

16:                                               ; preds = %15, %1
  ret void
}

; Function Attrs: nounwind uwtable
define hidden void @Curl_ssl_scache_return(ptr noundef %0, ptr noundef %1, ptr noundef %2, ptr noundef %3) #0 {
  %5 = alloca ptr, align 8
  %6 = alloca ptr, align 8
  %7 = alloca ptr, align 8
  %8 = alloca ptr, align 8
  store ptr %0, ptr %5, align 8, !tbaa !123
  store ptr %1, ptr %6, align 8, !tbaa !53
  store ptr %2, ptr %7, align 8, !tbaa !3
  store ptr %3, ptr %8, align 8, !tbaa !15
  %9 = load ptr, ptr %8, align 8, !tbaa !15
  %10 = icmp ne ptr %9, null
  br i1 %10, label %11, label %22

11:                                               ; preds = %4
  %12 = load ptr, ptr %8, align 8, !tbaa !15
  %13 = getelementptr inbounds nuw %struct.Curl_ssl_session, ptr %12, i32 0, i32 3
  %14 = load i32, ptr %13, align 8, !tbaa !17
  %15 = icmp slt i32 %14, 772
  br i1 %15, label %16, label %22

16:                                               ; preds = %11
  %17 = load ptr, ptr %5, align 8, !tbaa !123
  %18 = load ptr, ptr %6, align 8, !tbaa !53
  %19 = load ptr, ptr %7, align 8, !tbaa !3
  %20 = load ptr, ptr %8, align 8, !tbaa !15
  %21 = call i32 @Curl_ssl_scache_put(ptr noundef %17, ptr noundef %18, ptr noundef %19, ptr noundef %20)
  br label %24

22:                                               ; preds = %11, %4
  %23 = load ptr, ptr %8, align 8, !tbaa !15
  call void @Curl_ssl_session_destroy(ptr noundef %23)
  br label %24

24:                                               ; preds = %22, %16
  ret void
}