; Function Attrs: nounwind uwtable
define hidden void @Curl_ssl_scache_return(ptr noundef %0, ptr noundef %1, ptr noundef %2, ptr noundef %3) local_unnamed_addr #0 {
  %.not = icmp eq ptr %3, null
  br i1 %.not, label %.split, label %5

5:                                                ; preds = %4
  %6 = getelementptr inbounds nuw i8, ptr %3, i64 24
  %7 = load i32, ptr %6, align 8, !tbaa !9
  %8 = icmp slt i32 %7, 772
  br i1 %8, label %28, label %.split7

.split7:                                          ; preds = %5
  %9 = getelementptr inbounds nuw i8, ptr %3, i64 64
  %10 = tail call ptr @Curl_node_llist(ptr noundef nonnull %9) #9
  %.not4.i = icmp eq ptr %10, null
  br i1 %.not4.i, label %12, label %11

11:                                               ; preds = %.split7
  tail call void @Curl_node_remove(ptr noundef nonnull %9) #9
  br label %.split

12:                                               ; preds = %.split7
  %13 = load ptr, ptr %3, align 8, !tbaa !19
  %.not.i.i.i = icmp eq ptr %13, null
  br i1 %.not.i.i.i, label %16, label %14

14:                                               ; preds = %12
  %15 = load ptr, ptr @Curl_cfree, align 8, !tbaa !3
  tail call void %15(ptr noundef nonnull %13) #9
  store ptr null, ptr %3, align 8, !tbaa !19
  br label %16

16:                                               ; preds = %14, %12
  %17 = getelementptr inbounds nuw i8, ptr %3, i64 8
  store i64 0, ptr %17, align 8, !tbaa !20
  %18 = getelementptr inbounds nuw i8, ptr %3, i64 48
  %19 = load ptr, ptr %18, align 8, !tbaa !22
  %.not13.i.i.i = icmp eq ptr %19, null
  br i1 %.not13.i.i.i, label %cf_ssl_scache_sesssion_ldestroy.exit.i, label %20

20:                                               ; preds = %16
  %21 = load ptr, ptr @Curl_cfree, align 8, !tbaa !3
  tail call void %21(ptr noundef nonnull %19) #9
  store ptr null, ptr %18, align 8, !tbaa !22
  br label %cf_ssl_scache_sesssion_ldestroy.exit.i

cf_ssl_scache_sesssion_ldestroy.exit.i:           ; preds = %20, %16
  %22 = getelementptr inbounds nuw i8, ptr %3, i64 56
  store i64 0, ptr %22, align 8, !tbaa !23
  store i32 0, ptr %6, align 8, !tbaa !9
  %23 = getelementptr inbounds nuw i8, ptr %3, i64 16
  store i64 0, ptr %23, align 8, !tbaa !17
  %24 = load ptr, ptr @Curl_cfree, align 8, !tbaa !3
  %25 = getelementptr inbounds nuw i8, ptr %3, i64 32
  %26 = load ptr, ptr %25, align 8, !tbaa !21
  tail call void %24(ptr noundef %26) #9
  store ptr null, ptr %25, align 8, !tbaa !21
  %27 = load ptr, ptr @Curl_cfree, align 8, !tbaa !3
  tail call void %27(ptr noundef nonnull %3) #9
  br label %.split

28:                                               ; preds = %5
  %29 = tail call i32 @Curl_ssl_scache_put(ptr noundef %0, ptr noundef %1, ptr noundef %2, ptr noundef nonnull %3)
  br label %.split

.split:                                           ; preds = %cf_ssl_scache_sesssion_ldestroy.exit.i, %11, %4, %28
  ret void
}